target datalayout = "e-m:e-p270:32:32-p271:32:32-p272:64:64-i64:64-i128:128-f80:128-n8:16:32:64-S128"
target triple = "x86_64-unknown-linux-gnu"

%"class.QuantLib::Date" = type { i64 }
%"class.boost::detail::shared_count" = type { ptr }
%"class.QuantLib::InterestRate" = type { double, %"class.QuantLib::DayCounter", i32, i8, double }
%"class.QuantLib::DayCounter" = type { %"class.boost::shared_ptr.30" }
%"class.boost::shared_ptr.30" = type { ptr, %"class.boost::detail::shared_count" }
%"class.boost::detail::sp_counted_base" = type { ptr, i32, i32 }

; Function Attrs: inlinehint mustprogress nounwind uwtable
define linkonce_odr void @_ZN5boost6detail16atomic_incrementEPj(ptr noundef %pw) #6 comdat {
entry:
  %pw.addr = alloca ptr, align 8
  %.atomictmp = alloca i32, align 4
  %atomic-temp = alloca i32, align 4
  store ptr %pw, ptr %pw.addr, align 8, !tbaa !3
  %0 = load ptr, ptr %pw.addr, align 8, !tbaa !3
  store i32 1, ptr %.atomictmp, align 4, !tbaa !31
  %1 = load i32, ptr %.atomictmp, align 4
  %2 = atomicrmw add ptr %0, i32 %1 monotonic, align 4
  store i32 %2, ptr %atomic-temp, align 4
  ret void
}

; Function Attrs: mustprogress uwtable
define linkonce_odr void @_ZN5boost6detail15sp_counted_base12add_ref_copyEv(ptr noundef nonnull align 8 dereferenceable(16) %this) #4 comdat align 2 {
entry:
  %this.addr = alloca ptr, align 8
  store ptr %this, ptr %this.addr, align 8, !tbaa !3
  %this1 = load ptr, ptr %this.addr, align 8
  %use_count_ = getelementptr inbounds nuw %"class.boost::detail::sp_counted_base", ptr %this1, i32 0, i32 1
  call void @_ZN5boost6detail16atomic_incrementEPj(ptr noundef %use_count_)
  ret void
}

; Function Attrs: mustprogress nounwind uwtable
define linkonce_odr void @_ZN5boost6detail12shared_countC2ERKS1_(ptr noundef nonnull align 8 dereferenceable(8) %this, ptr noundef nonnull align 8 dereferenceable(8) %r) unnamed_addr #3 comdat align 2 personality ptr @__gxx_personality_v0 {
entry:
  %this.addr = alloca ptr, align 8
  %r.addr = alloca ptr, align 8
  store ptr %this, ptr %this.addr, align 8, !tbaa !3
  store ptr %r, ptr %r.addr, align 8, !tbaa !3
  %this1 = load ptr, ptr %this.addr, align 8
  %pi_ = getelementptr inbounds nuw %"class.boost::detail::shared_count", ptr %this1, i32 0, i32 0
  %0 = load ptr, ptr %r.addr, align 8, !tbaa !3
  %pi_2 = getelementptr inbounds nuw %"class.boost::detail::shared_count", ptr %0, i32 0, i32 0
  %1 = load ptr, ptr %pi_2, align 8, !tbaa !29
  store ptr %1, ptr %pi_, align 8, !tbaa !29
  %pi_3 = getelementptr inbounds nuw %"class.boost::detail::shared_count", ptr %this1, i32 0, i32 0
  %2 = load ptr, ptr %pi_3, align 8, !tbaa !29
  %cmp = icmp ne ptr %2, null
  br i1 %cmp, label %if.then, label %if.end

if.then:                                          ; preds = %entry
  %pi_4 = getelementptr inbounds nuw %"class.boost::detail::shared_count", ptr %this1, i32 0, i32 0
  %3 = load ptr, ptr %pi_4, align 8, !tbaa !29
  invoke void @_ZN5boost6detail15sp_counted_base12add_ref_copyEv(ptr noundef nonnull align 8 dereferenceable(16) %3)
          to label %invoke.cont unwind label %terminate.lpad

invoke.cont:                                      ; preds = %if.then
  br label %if.end

if.end:                                           ; preds = %invoke.cont, %entry
  ret void

terminate.lpad:                                   ; preds = %if.then
  %4 = landingpad { ptr, i32 }
          catch ptr null
  %5 = extractvalue { ptr, i32 } %4, 0
  call void @__clang_call_terminate(ptr %5) #15
  unreachable
}

; Function Attrs: mustprogress nounwind uwtable
define linkonce_odr void @_ZN5boost10shared_ptrIN8QuantLib10DayCounter4ImplEEC2ERKS4_(ptr noundef nonnull align 8 dereferenceable(16) %this, ptr noundef nonnull align 8 dereferenceable(16) %r) unnamed_addr #3 comdat align 2 {
entry:
  %this.addr = alloca ptr, align 8
  %r.addr = alloca ptr, align 8
  store ptr %this, ptr %this.addr, align 8, !tbaa !3
  store ptr %r, ptr %r.addr, align 8, !tbaa !3
  %this1 = load ptr, ptr %this.addr, align 8
  %px = getelementptr inbounds nuw %"class.boost::shared_ptr.30", ptr %this1, i32 0, i32 0
  %0 = load ptr, ptr %r.addr, align 8, !tbaa !3
  %px2 = getelementptr inbounds nuw %"class.boost::shared_ptr.30", ptr %0, i32 0, i32 0
  %1 = load ptr, ptr %px2, align 8, !tbaa !35
  store ptr %1, ptr %px, align 8, !tbaa !35
  %pn = getelementptr inbounds nuw %"class.boost::shared_ptr.30", ptr %this1, i32 0, i32 1
  %2 = load ptr, ptr %r.addr, align 8, !tbaa !3
  %pn3 = getelementptr inbounds nuw %"class.boost::shared_ptr.30", ptr %2, i32 0, i32 1
  call void @_ZN5boost6detail12shared_countC2ERKS1_(ptr noundef nonnull align 8 dereferenceable(8) %pn, ptr noundef nonnull align 8 dereferenceable(8) %pn3) #14
  ret void
}

; Function Attrs: inlinehint mustprogress nounwind uwtable
define linkonce_odr void @_ZN8QuantLib10DayCounterC2ERKS0_(ptr noundef nonnull align 8 dereferenceable(16) %this, ptr noundef nonnull align 8 dereferenceable(16) %0) unnamed_addr #6 comdat align 2 {
entry:
  %this.addr = alloca ptr, align 8
  %.addr = alloca ptr, align 8
  store ptr %this, ptr %this.addr, align 8, !tbaa !3
  store ptr %0, ptr %.addr, align 8, !tbaa !3
  %this1 = load ptr, ptr %this.addr, align 8
  %impl_ = getelementptr inbounds nuw %"class.QuantLib::DayCounter", ptr %this1, i32 0, i32 0
  %1 = load ptr, ptr %.addr, align 8, !tbaa !3
  %impl_2 = getelementptr inbounds nuw %"class.QuantLib::DayCounter", ptr %1, i32 0, i32 0
  call void @_ZN5boost10shared_ptrIN8QuantLib10DayCounter4ImplEEC2ERKS4_(ptr noundef nonnull align 8 dereferenceable(16) %impl_, ptr noundef nonnull align 8 dereferenceable(16) %impl_2) #14
  ret void
}

; Function Attrs: mustprogress uwtable
define noundef double @_ZN8QuantLib13BondFunctions9convexityERKNS_4BondEdRKNS_10DayCounterENS_11CompoundingENS_9FrequencyENS_4DateE(ptr noundef nonnull align 8 dereferenceable(248) %bond, double noundef %yield, ptr noundef nonnull align 8 dereferenceable(16) %dayCounter, i32 noundef %compounding, i32 noundef %frequency, i64 %settlement.coerce) #4 align 2 personality ptr @__gxx_personality_v0 {
entry:
  %settlement = alloca %"class.QuantLib::Date", align 8
  %bond.addr = alloca ptr, align 8
  %yield.addr = alloca double, align 8
  %dayCounter.addr = alloca ptr, align 8
  %compounding.addr = alloca i32, align 4
  %frequency.addr = alloca i32, align 4
  %y = alloca %"class.QuantLib::InterestRate", align 8
  %agg.tmp = alloca %"class.QuantLib::DayCounter", align 8
  %exn.slot = alloca ptr, align 8
  %ehselector.slot = alloca i32, align 4
  %agg.tmp1 = alloca %"class.QuantLib::Date", align 8
  %coerce.dive = getelementptr inbounds nuw %"class.QuantLib::Date", ptr %settlement, i32 0, i32 0
  store i64 %settlement.coerce, ptr %coerce.dive, align 8
  store ptr %bond, ptr %bond.addr, align 8, !tbaa !3
  store double %yield, ptr %yield.addr, align 8, !tbaa !12
  store ptr %dayCounter, ptr %dayCounter.addr, align 8, !tbaa !3
  store i32 %compounding, ptr %compounding.addr, align 4, !tbaa !19
  store i32 %frequency, ptr %frequency.addr, align 4, !tbaa !21
  call void @llvm.lifetime.start.p0(i64 40, ptr %y) #14
  %0 = load double, ptr %yield.addr, align 8, !tbaa !12
  %1 = load ptr, ptr %dayCounter.addr, align 8, !tbaa !3
  call void @_ZN8QuantLib10DayCounterC2ERKS0_(ptr noundef nonnull align 8 dereferenceable(16) %agg.tmp, ptr noundef nonnull align 8 dereferenceable(16) %1) #14
  %2 = load i32, ptr %compounding.addr, align 4, !tbaa !19
  %3 = load i32, ptr %frequency.addr, align 4, !tbaa !21
  invoke void @_ZN8QuantLib12InterestRateC1EdNS_10DayCounterENS_11CompoundingENS_9FrequencyE(ptr noundef nonnull align 8 dereferenceable(40) %y, double noundef %0, ptr noundef %agg.tmp, i32 noundef %2, i32 noundef %3)
          to label %invoke.cont unwind label %lpad

invoke.cont:                                      ; preds = %entry
  call void @_ZN8QuantLib10DayCounterD2Ev(ptr noundef nonnull align 8 dereferenceable(16) %agg.tmp) #14
  %4 = load ptr, ptr %bond.addr, align 8, !tbaa !3
  call void @llvm.memcpy.p0.p0.i64(ptr align 8 %agg.tmp1, ptr align 8 %settlement, i64 8, i1 false), !tbaa.struct !7
  %coerce.dive2 = getelementptr inbounds nuw %"class.QuantLib::Date", ptr %agg.tmp1, i32 0, i32 0
  %5 = load i64, ptr %coerce.dive2, align 8
  %call = invoke noundef double @_ZN8QuantLib13BondFunctions9convexityERKNS_4BondERKNS_12InterestRateENS_4DateE(ptr noundef nonnull align 8 dereferenceable(248) %4, ptr noundef nonnull align 8 dereferenceable(40) %y, i64 %5)
          to label %invoke.cont4 unwind label %lpad3

invoke.cont4:                                     ; preds = %invoke.cont
  call void @_ZN8QuantLib12InterestRateD2Ev(ptr noundef nonnull align 8 dereferenceable(40) %y) #14
  call void @llvm.lifetime.end.p0(i64 40, ptr %y) #14
  ret double %call

lpad:                                             ; preds = %entry
  %6 = landingpad { ptr, i32 }
          cleanup
  %7 = extractvalue { ptr, i32 } %6, 0
  store ptr %7, ptr %exn.slot, align 8
  %8 = extractvalue { ptr, i32 } %6, 1
  store i32 %8, ptr %ehselector.slot, align 4
  call void @_ZN8QuantLib10DayCounterD2Ev(ptr noundef nonnull align 8 dereferenceable(16) %agg.tmp) #14
  br label %ehcleanup

lpad3:                                            ; preds = %invoke.cont
  %9 = landingpad { ptr, i32 }
          cleanup
  %10 = extractvalue { ptr, i32 } %9, 0
  store ptr %10, ptr %exn.slot, align 8
  %11 = extractvalue { ptr, i32 } %9, 1
  store i32 %11, ptr %ehselector.slot, align 4
  call void @_ZN8QuantLib12InterestRateD2Ev(ptr noundef nonnull align 8 dereferenceable(40) %y) #14
  br label %ehcleanup

ehcleanup:                                        ; preds = %lpad3, %lpad
  call void @llvm.lifetime.end.p0(i64 40, ptr %y) #14
  br label %eh.resume

eh.resume:                                        ; preds = %ehcleanup
  %exn = load ptr, ptr %exn.slot, align 8
  %sel = load i32, ptr %ehselector.slot, align 4
  %lpad.val = insertvalue { ptr, i32 } poison, ptr %exn, 0
  %lpad.val5 = insertvalue { ptr, i32 } %lpad.val, i32 %sel, 1
  resume { ptr, i32 } %lpad.val5
}